target datalayout = "e-m:e-p270:32:32-p271:32:32-p272:64:64-i64:64-i128:128-f80:128-n8:16:32:64-S128"
target triple = "x86_64-pc-linux-gnu"

; Function Attrs: nounwind uwtable
define dso_local void @assign_transaction_timeout(i32 noundef %0, ptr noundef %1) #0 {
  %3 = alloca i32, align 4
  %4 = alloca ptr, align 8
  store i32 %0, ptr %3, align 4
  store ptr %1, ptr %4, align 8
  %5 = call zeroext i1 @IsTransactionState()
  br i1 %5, label %6, label %21

6:                                                ; preds = %2
  %7 = load i32, ptr %3, align 4
  %8 = icmp sgt i32 %7, 0
  br i1 %8, label %9, label %13

9:                                                ; preds = %6
  %10 = call zeroext i1 @get_timeout_active(i32 noundef 8)
  br i1 %10, label %13, label %11

11:                                               ; preds = %9
  %12 = load i32, ptr %3, align 4
  call void @enable_timeout_after(i32 noundef 8, i32 noundef %12)
  br label %20

13:                                               ; preds = %9, %6
  %14 = load i32, ptr %3, align 4
  %15 = icmp sle i32 %14, 0
  br i1 %15, label %16, label %19

16:                                               ; preds = %13
  %17 = call zeroext i1 @get_timeout_active(i32 noundef 8)
  br i1 %17, label %18, label %19

18:                                               ; preds = %16
  call void @disable_timeout(i32 noundef 8, i1 noundef zeroext false)
  br label %19

19:                                               ; preds = %18, %16, %13
  br label %20

20:                                               ; preds = %19, %11
  br label %21

21:                                               ; preds = %20, %2
  ret void
}