; Function Attrs: nounwind uwtable
define dso_local void @assign_transaction_timeout(i32 noundef %0, ptr noundef readnone captures(none) %1) local_unnamed_addr #0 {
  %3 = tail call zeroext i1 @IsTransactionState() #22
  br i1 %3, label %4, label %11

4:                                                ; preds = %2
  %5 = icmp sgt i32 %0, 0
  %6 = tail call zeroext i1 @get_timeout_active(i32 noundef 8) #22
  br i1 %5, label %7, label %9

7:                                                ; preds = %4
  br i1 %6, label %11, label %8

8:                                                ; preds = %7
  tail call void @enable_timeout_after(i32 noundef 8, i32 noundef %0) #22
  br label %11

9:                                                ; preds = %4
  br i1 %6, label %10, label %11

10:                                               ; preds = %9
  tail call void @disable_timeout(i32 noundef 8, i1 noundef zeroext false) #22
  br label %11

11:                                               ; preds = %7, %8, %10, %9, %2
  ret void
}